target datalayout = "e-m:e-p270:32:32-p271:32:32-p272:64:64-i64:64-i128:128-f80:128-n8:16:32:64-S128"
target triple = "x86_64-pc-linux-gnu"

%struct.BrinOpaque = type { i32, ptr, ptr }
%struct.IndexScanDescData = type { ptr, ptr, ptr, i32, i32, ptr, ptr, i8, i8, i8, i8, i8, ptr, ptr, ptr, ptr, ptr, %struct.ItemPointerData, i8, ptr, i8, ptr, ptr, i8, ptr }
%struct.ItemPointerData = type { %struct.BlockIdData, i16 }
%struct.BlockIdData = type { i16, i16 }
%struct.BrinDesc = type { ptr, ptr, ptr, ptr, i32, [0 x ptr] }

; Function Attrs: nounwind uwtable
define dso_local void @brin_free_desc(ptr noundef %0) #0 {
  %2 = alloca ptr, align 8
  store ptr %0, ptr %2, align 8
  %3 = load ptr, ptr %2, align 8
  %4 = getelementptr inbounds nuw %struct.BrinDesc, ptr %3, i32 0, i32 0
  %5 = load ptr, ptr %4, align 8
  call void @MemoryContextDelete(ptr noundef %5)
  ret void
}

; Function Attrs: nounwind uwtable
define dso_local void @brinendscan(ptr noundef %0) #0 {
  %2 = alloca ptr, align 8
  %3 = alloca ptr, align 8
  store ptr %0, ptr %2, align 8
  call void @llvm.lifetime.start.p0(i64 8, ptr %3) #9
  %4 = load ptr, ptr %2, align 8
  %5 = getelementptr inbounds nuw %struct.IndexScanDescData, ptr %4, i32 0, i32 12
  %6 = load ptr, ptr %5, align 8
  store ptr %6, ptr %3, align 8
  %7 = load ptr, ptr %3, align 8
  %8 = getelementptr inbounds nuw %struct.BrinOpaque, ptr %7, i32 0, i32 1
  %9 = load ptr, ptr %8, align 8
  call void @brinRevmapTerminate(ptr noundef %9)
  %10 = load ptr, ptr %3, align 8
  %11 = getelementptr inbounds nuw %struct.BrinOpaque, ptr %10, i32 0, i32 2
  %12 = load ptr, ptr %11, align 8
  call void @brin_free_desc(ptr noundef %12)
  %13 = load ptr, ptr %3, align 8
  call void @pfree(ptr noundef %13)
  call void @llvm.lifetime.end.p0(i64 8, ptr %3) #9
  ret void
}