; Function Attrs: nounwind uwtable
define dso_local void @brinendscan(ptr noundef readonly captures(none) %0) #0 {
  %2 = getelementptr inbounds nuw i8, ptr %0, i64 56
  %3 = load ptr, ptr %2, align 8
  %4 = getelementptr inbounds nuw i8, ptr %3, i64 8
  %5 = load ptr, ptr %4, align 8
  tail call void @brinRevmapTerminate(ptr noundef %5) #10
  %6 = getelementptr inbounds nuw i8, ptr %3, i64 16
  %7 = load ptr, ptr %6, align 8
  %8 = load ptr, ptr %7, align 8
  tail call void @MemoryContextDelete(ptr noundef %8) #10
  tail call void @pfree(ptr noundef %3) #10
  ret void
}